; Function Attrs: nounwind uwtable
define dso_local i32 @freeClientsInAsyncFreeQueue() local_unnamed_addr #0 {
  %1 = alloca %struct.listIter, align 8
  call void @llvm.lifetime.start.p0(i64 16, ptr nonnull %1) #26
  %2 = load ptr, ptr getelementptr inbounds nuw (i8, ptr @server, i64 1440), align 8, !tbaa !118
  call void @listRewind(ptr noundef %2, ptr noundef nonnull %1) #26
  %3 = call ptr @listNext(ptr noundef nonnull %1) #26
  %.not8 = icmp eq ptr %3, null
  br i1 %.not8, label %._crit_edge, label %.lr.ph

.lr.ph:                                           ; preds = %0, %14
  %4 = phi ptr [ %15, %14 ], [ %3, %0 ]
  %.09 = phi i32 [ %.1, %14 ], [ 0, %0 ]
  %5 = getelementptr inbounds nuw i8, ptr %4, i64 16
  %6 = load ptr, ptr %5, align 8, !tbaa !123
  %7 = getelementptr inbounds nuw i8, ptr %6, i64 8
  %8 = load i64, ptr %7, align 8, !tbaa !86
  %9 = and i64 %8, 268435456
  %.not7 = icmp eq i64 %9, 0
  br i1 %.not7, label %10, label %14, !llvm.loop !224

10:                                               ; preds = %.lr.ph
  %11 = and i64 %8, -268436481
  store i64 %11, ptr %7, align 8, !tbaa !86
  call void @freeClient(ptr noundef nonnull %6)
  %12 = load ptr, ptr getelementptr inbounds nuw (i8, ptr @server, i64 1440), align 8, !tbaa !118
  call void @listDelNode(ptr noundef %12, ptr noundef nonnull %4) #26
  %13 = add nsw i32 %.09, 1
  br label %14

14:                                               ; preds = %.lr.ph, %10
  %.1 = phi i32 [ %13, %10 ], [ %.09, %.lr.ph ]
  %15 = call ptr @listNext(ptr noundef nonnull %1) #26
  %.not = icmp eq ptr %15, null
  br i1 %.not, label %._crit_edge, label %.lr.ph

._crit_edge:                                      ; preds = %14, %0
  %.0.lcssa = phi i32 [ 0, %0 ], [ %.1, %14 ]
  call void @llvm.lifetime.end.p0(i64 16, ptr nonnull %1) #26
  ret i32 %.0.lcssa
}